target datalayout = "e-m:e-p270:32:32-p271:32:32-p272:64:64-i64:64-i128:128-f80:128-n8:16:32:64-S128"
target triple = "x86_64-pc-linux-gnu"

%struct.prov_aes_gcm_siv_ctx_st = type { ptr, ptr, ptr, ptr, ptr, i64, i64, [32 x i8], [32 x i8], [16 x i8], [16 x i8], [16 x i8], [12 x i8], [16 x %struct.u128], i8 }
%struct.u128 = type { i64, i64 }

; Function Attrs: nounwind uwtable
define internal i32 @aes_gcm_siv_dup_ctx(ptr noundef %0, ptr noundef %1) #0 {
  %3 = alloca i32, align 4
  %4 = alloca ptr, align 8
  %5 = alloca ptr, align 8
  %6 = alloca ptr, align 8
  %7 = alloca ptr, align 8
  %8 = alloca i32, align 4
  store ptr %0, ptr %4, align 8, !tbaa !7
  store ptr %1, ptr %5, align 8, !tbaa !7
  call void @llvm.lifetime.start.p0(i64 8, ptr %6) #5
  %9 = load ptr, ptr %4, align 8, !tbaa !7
  store ptr %9, ptr %6, align 8, !tbaa !9
  call void @llvm.lifetime.start.p0(i64 8, ptr %7) #5
  %10 = load ptr, ptr %5, align 8, !tbaa !7
  store ptr %10, ptr %7, align 8, !tbaa !9
  %11 = load ptr, ptr %6, align 8, !tbaa !9
  %12 = getelementptr inbounds nuw %struct.prov_aes_gcm_siv_ctx_st, ptr %11, i32 0, i32 0
  store ptr null, ptr %12, align 8, !tbaa !23
  %13 = load ptr, ptr %7, align 8, !tbaa !9
  %14 = getelementptr inbounds nuw %struct.prov_aes_gcm_siv_ctx_st, ptr %13, i32 0, i32 0
  %15 = load ptr, ptr %14, align 8, !tbaa !23
  %16 = icmp ne ptr %15, null
  br i1 %16, label %17, label %34

17:                                               ; preds = %2
  %18 = call ptr @EVP_CIPHER_CTX_new()
  %19 = load ptr, ptr %6, align 8, !tbaa !9
  %20 = getelementptr inbounds nuw %struct.prov_aes_gcm_siv_ctx_st, ptr %19, i32 0, i32 0
  store ptr %18, ptr %20, align 8, !tbaa !23
  %21 = icmp eq ptr %18, null
  br i1 %21, label %22, label %23

22:                                               ; preds = %17
  br label %35

23:                                               ; preds = %17
  %24 = load ptr, ptr %6, align 8, !tbaa !9
  %25 = getelementptr inbounds nuw %struct.prov_aes_gcm_siv_ctx_st, ptr %24, i32 0, i32 0
  %26 = load ptr, ptr %25, align 8, !tbaa !23
  %27 = load ptr, ptr %7, align 8, !tbaa !9
  %28 = getelementptr inbounds nuw %struct.prov_aes_gcm_siv_ctx_st, ptr %27, i32 0, i32 0
  %29 = load ptr, ptr %28, align 8, !tbaa !23
  %30 = call i32 @EVP_CIPHER_CTX_copy(ptr noundef %26, ptr noundef %29)
  %31 = icmp ne i32 %30, 0
  br i1 %31, label %33, label %32

32:                                               ; preds = %23
  br label %35

33:                                               ; preds = %23
  br label %34

34:                                               ; preds = %33, %2
  store i32 1, ptr %3, align 4
  store i32 1, ptr %8, align 4
  br label %41

35:                                               ; preds = %32, %22
  %36 = load ptr, ptr %6, align 8, !tbaa !9
  %37 = getelementptr inbounds nuw %struct.prov_aes_gcm_siv_ctx_st, ptr %36, i32 0, i32 0
  %38 = load ptr, ptr %37, align 8, !tbaa !23
  call void @EVP_CIPHER_CTX_free(ptr noundef %38)
  %39 = load ptr, ptr %6, align 8, !tbaa !9
  %40 = getelementptr inbounds nuw %struct.prov_aes_gcm_siv_ctx_st, ptr %39, i32 0, i32 0
  store ptr null, ptr %40, align 8, !tbaa !23
  store i32 0, ptr %3, align 4
  store i32 1, ptr %8, align 4
  br label %41

41:                                               ; preds = %35, %34
  call void @llvm.lifetime.end.p0(i64 8, ptr %7) #5
  call void @llvm.lifetime.end.p0(i64 8, ptr %6) #5
  %42 = load i32, ptr %3, align 4
  ret i32 %42
}