; Function Attrs: nounwind uwtable
define internal range(i32 0, 2) i32 @aes_gcm_siv_dup_ctx(ptr noundef captures(none) initializes((0, 8)) %0, ptr noundef readonly captures(none) %1) #1 {
  store ptr null, ptr %0, align 8, !tbaa !16
  %3 = load ptr, ptr %1, align 8, !tbaa !16
  %.not = icmp eq ptr %3, null
  br i1 %.not, label %12, label %4

4:                                                ; preds = %2
  %5 = tail call ptr @EVP_CIPHER_CTX_new() #7
  store ptr %5, ptr %0, align 8, !tbaa !16
  %6 = icmp eq ptr %5, null
  br i1 %6, label %10, label %7

7:                                                ; preds = %4
  %8 = load ptr, ptr %1, align 8, !tbaa !16
  %9 = tail call i32 @EVP_CIPHER_CTX_copy(ptr noundef nonnull %5, ptr noundef %8) #7
  %.not10 = icmp eq i32 %9, 0
  br i1 %.not10, label %._crit_edge, label %12

._crit_edge:                                      ; preds = %7
  %.pre = load ptr, ptr %0, align 8, !tbaa !16
  br label %10

10:                                               ; preds = %._crit_edge, %4
  %11 = phi ptr [ %.pre, %._crit_edge ], [ null, %4 ]
  tail call void @EVP_CIPHER_CTX_free(ptr noundef %11) #7
  store ptr null, ptr %0, align 8, !tbaa !16
  br label %12

12:                                               ; preds = %2, %7, %10
  %.0 = phi i32 [ 0, %10 ], [ 1, %7 ], [ 1, %2 ]
  ret i32 %.0
}